target datalayout = "e-m:e-p270:32:32-p271:32:32-p272:64:64-i64:64-i128:128-f80:128-n8:16:32:64-S128"
target triple = "x86_64-pc-linux-gnu"

%struct.H5S_t = type { %struct.H5S_extent_t, %struct.H5S_select_t }
%struct.H5S_extent_t = type { %struct.H5O_shared_t, i32, i32, i64, i32, ptr, ptr }
%struct.H5O_shared_t = type { i32, ptr, i32, %union.anon }
%union.anon = type { %struct.H5O_mesg_loc_t }
%struct.H5O_mesg_loc_t = type { i32, i64 }
%struct.H5S_select_t = type { ptr, i8, [32 x i64], i64, %union.anon.0 }
%union.anon.0 = type { ptr }

@H5_libinit_g = external global i8, align 1
@H5_libterm_g = external global i8, align 1
@.str.1 = private unnamed_addr constant [103 x i8] c"generated/home/dtcxzyw/WorkSpace/Projects/compilers/llvm-opt-benchmark/bench/hdf5/hdf5/src/H5Sselect.c\00", align 1
@H5E_FUNC_g = external global i64, align 8
@H5E_CANTINIT_g = external global i64, align 8
@.str.2 = private unnamed_addr constant [30 x i8] c"library initialization failed\00", align 1
@H5E_CANTSET_g = external global i64, align 8
@.str.3 = private unnamed_addr constant [22 x i8] c"can't set API context\00", align 1
@.str.4 = private unnamed_addr constant [16 x i8] c"not a dataspace\00", align 1
@H5E_ARGS_g = external global i64, align 8
@H5E_BADTYPE_g = external global i64, align 8
@__func__.H5Sget_select_npoints = private unnamed_addr constant [22 x i8] c"H5Sget_select_npoints\00", align 1

; Function Attrs: nounwind uwtable
define i64 @H5Sget_select_npoints(i64 noundef %0) #0 {
  %2 = alloca i64, align 8
  %3 = alloca ptr, align 8
  %4 = alloca i64, align 8
  %5 = alloca i8, align 1
  %6 = alloca i8, align 1
  store i64 %0, ptr %2, align 8
  store i8 0, ptr %5, align 1
  store i8 0, ptr %6, align 1
  %7 = load i8, ptr @H5_libinit_g, align 1
  %8 = trunc i8 %7 to i1
  br i1 %8, label %13, label %9

9:                                                ; preds = %1
  %10 = load i8, ptr @H5_libterm_g, align 1
  %11 = trunc i8 %10 to i1
  %12 = xor i1 %11, true
  br label %13

13:                                               ; preds = %9, %1
  %14 = phi i1 [ false, %1 ], [ %12, %9 ]
  %15 = xor i1 %14, true
  %16 = xor i1 %15, true
  %17 = zext i1 %16 to i32
  %18 = sext i32 %17 to i64
  %19 = icmp ne i64 %18, 0
  br i1 %19, label %20, label %44

20:                                               ; preds = %13
  %21 = call i32 @H5_init_library()
  %22 = icmp slt i32 %21, 0
  %23 = xor i1 %22, true
  %24 = xor i1 %23, true
  %25 = zext i1 %24 to i32
  %26 = sext i32 %25 to i64
  %27 = icmp ne i64 %26, 0
  br i1 %27, label %28, label %43

28:                                               ; preds = %20
  br label %29

29:                                               ; preds = %28
  br label %30

30:                                               ; preds = %29
  br label %31

31:                                               ; preds = %30
  %32 = load i64, ptr @H5E_FUNC_g, align 8
  %33 = load i64, ptr @H5E_CANTINIT_g, align 8
  %34 = call i32 (ptr, ptr, i32, i64, i64, ptr, ...) @H5E_printf_stack(ptr noundef @.str.1, ptr noundef @__func__.H5Sget_select_npoints, i32 noundef 366, i64 noundef %32, i64 noundef %33, ptr noundef @.str.2)
  br label %35

35:                                               ; preds = %31
  store i8 1, ptr %6, align 1
  %36 = load i8, ptr %6, align 1
  %37 = trunc i8 %36 to i1
  %38 = zext i1 %37 to i8
  store i8 %38, ptr %6, align 1
  br label %39

39:                                               ; preds = %35
  br label %40

40:                                               ; preds = %39
  store i64 -1, ptr %4, align 8
  br label %93

41:                                               ; No predecessors!
  br label %42

42:                                               ; preds = %41
  br label %43

43:                                               ; preds = %42, %20
  br label %44

44:                                               ; preds = %43, %13
  %45 = call i32 @H5CX_push()
  %46 = icmp slt i32 %45, 0
  %47 = xor i1 %46, true
  %48 = xor i1 %47, true
  %49 = zext i1 %48 to i32
  %50 = sext i32 %49 to i64
  %51 = icmp ne i64 %50, 0
  br i1 %51, label %52, label %67

52:                                               ; preds = %44
  br label %53

53:                                               ; preds = %52
  br label %54

54:                                               ; preds = %53
  br label %55

55:                                               ; preds = %54
  %56 = load i64, ptr @H5E_FUNC_g, align 8
  %57 = load i64, ptr @H5E_CANTSET_g, align 8
  %58 = call i32 (ptr, ptr, i32, i64, i64, ptr, ...) @H5E_printf_stack(ptr noundef @.str.1, ptr noundef @__func__.H5Sget_select_npoints, i32 noundef 366, i64 noundef %56, i64 noundef %57, ptr noundef @.str.3)
  br label %59

59:                                               ; preds = %55
  store i8 1, ptr %6, align 1
  %60 = load i8, ptr %6, align 1
  %61 = trunc i8 %60 to i1
  %62 = zext i1 %61 to i8
  store i8 %62, ptr %6, align 1
  br label %63

63:                                               ; preds = %59
  br label %64

64:                                               ; preds = %63
  store i64 -1, ptr %4, align 8
  br label %93

65:                                               ; No predecessors!
  br label %66

66:                                               ; preds = %65
  br label %68

67:                                               ; preds = %44
  store i8 1, ptr %5, align 1
  br label %68

68:                                               ; preds = %67, %66
  %69 = call i32 @H5E_clear_stack()
  %70 = load i64, ptr %2, align 8
  %71 = call ptr @H5I_object_verify(i64 noundef %70, i32 noundef 4)
  store ptr %71, ptr %3, align 8
  %72 = icmp eq ptr null, %71
  br i1 %72, label %73, label %88

73:                                               ; preds = %68
  br label %74

74:                                               ; preds = %73
  br label %75

75:                                               ; preds = %74
  br label %76

76:                                               ; preds = %75
  %77 = load i64, ptr @H5E_ARGS_g, align 8
  %78 = load i64, ptr @H5E_BADTYPE_g, align 8
  %79 = call i32 (ptr, ptr, i32, i64, i64, ptr, ...) @H5E_printf_stack(ptr noundef @.str.1, ptr noundef @__func__.H5Sget_select_npoints, i32 noundef 370, i64 noundef %77, i64 noundef %78, ptr noundef @.str.4)
  br label %80

80:                                               ; preds = %76
  store i8 1, ptr %6, align 1
  %81 = load i8, ptr %6, align 1
  %82 = trunc i8 %81 to i1
  %83 = zext i1 %82 to i8
  store i8 %83, ptr %6, align 1
  br label %84

84:                                               ; preds = %80
  br label %85

85:                                               ; preds = %84
  store i64 -1, ptr %4, align 8
  br label %93

86:                                               ; No predecessors!
  br label %87

87:                                               ; preds = %86
  br label %88

88:                                               ; preds = %87, %68
  %89 = load ptr, ptr %3, align 8
  %90 = getelementptr inbounds %struct.H5S_t, ptr %89, i32 0, i32 1
  %91 = getelementptr inbounds %struct.H5S_select_t, ptr %90, i32 0, i32 3
  %92 = load i64, ptr %91, align 8
  store i64 %92, ptr %4, align 8
  br label %93

93:                                               ; preds = %88, %85, %64, %40
  %94 = load i8, ptr %5, align 1
  %95 = trunc i8 %94 to i1
  %96 = xor i1 %95, true
  %97 = xor i1 %96, true
  %98 = zext i1 %97 to i32
  %99 = sext i32 %98 to i64
  %100 = icmp ne i64 %99, 0
  br i1 %100, label %101, label %103

101:                                              ; preds = %93
  %102 = call i32 @H5CX_pop(i1 noundef zeroext true)
  store i8 0, ptr %5, align 1
  br label %103

103:                                              ; preds = %101, %93
  %104 = load i8, ptr %6, align 1
  %105 = trunc i8 %104 to i1
  %106 = xor i1 %105, true
  %107 = xor i1 %106, true
  %108 = zext i1 %107 to i32
  %109 = sext i32 %108 to i64
  %110 = icmp ne i64 %109, 0
  br i1 %110, label %111, label %113

111:                                              ; preds = %103
  %112 = call i32 @H5E_dump_api_stack()
  br label %113

113:                                              ; preds = %111, %103
  %114 = load i64, ptr %4, align 8
  ret i64 %114
}