; Function Attrs: nounwind uwtable
define i64 @H5Sget_select_npoints(i64 noundef %0) local_unnamed_addr #3 {
  %2 = load i8, ptr @H5_libinit_g, align 1
  %3 = trunc i8 %2 to i1
  %4 = load i8, ptr @H5_libterm_g, align 1
  %5 = trunc i8 %4 to i1
  %6 = select i1 %3, i1 true, i1 %5
  br i1 %6, label %14, label %7

7:                                                ; preds = %1
  %8 = tail call i32 @H5_init_library() #7
  %9 = icmp slt i32 %8, 0
  br i1 %9, label %10, label %14

10:                                               ; preds = %7
  %11 = load i64, ptr @H5E_FUNC_g, align 8
  %12 = load i64, ptr @H5E_CANTINIT_g, align 8
  %13 = tail call i32 (ptr, ptr, i32, i64, i64, ptr, ...) @H5E_printf_stack(ptr noundef nonnull @.str.1, ptr noundef nonnull @__func__.H5Sget_select_npoints, i32 noundef 366, i64 noundef %11, i64 noundef %12, ptr noundef nonnull @.str.2) #7
  br label %.thread18

14:                                               ; preds = %7, %1
  %15 = tail call i32 @H5CX_push() #7
  %16 = icmp slt i32 %15, 0
  br i1 %16, label %17, label %21

17:                                               ; preds = %14
  %18 = load i64, ptr @H5E_FUNC_g, align 8
  %19 = load i64, ptr @H5E_CANTSET_g, align 8
  %20 = tail call i32 (ptr, ptr, i32, i64, i64, ptr, ...) @H5E_printf_stack(ptr noundef nonnull @.str.1, ptr noundef nonnull @__func__.H5Sget_select_npoints, i32 noundef 366, i64 noundef %18, i64 noundef %19, ptr noundef nonnull @.str.3) #7
  br label %.thread18

21:                                               ; preds = %14
  %22 = tail call i32 @H5E_clear_stack() #7
  %23 = tail call ptr @H5I_object_verify(i64 noundef %0, i32 noundef 4) #7
  %24 = icmp eq ptr %23, null
  br i1 %24, label %.thread23, label %29

.thread23:                                        ; preds = %21
  %25 = load i64, ptr @H5E_ARGS_g, align 8
  %26 = load i64, ptr @H5E_BADTYPE_g, align 8
  %27 = tail call i32 (ptr, ptr, i32, i64, i64, ptr, ...) @H5E_printf_stack(ptr noundef nonnull @.str.1, ptr noundef nonnull @__func__.H5Sget_select_npoints, i32 noundef 370, i64 noundef %25, i64 noundef %26, ptr noundef nonnull @.str.4) #7
  %28 = tail call i32 @H5CX_pop(i1 noundef zeroext true) #7
  br label %.thread18

29:                                               ; preds = %21
  %30 = getelementptr inbounds i8, ptr %23, i64 352
  %31 = load i64, ptr %30, align 8
  %32 = tail call i32 @H5CX_pop(i1 noundef zeroext true) #7
  br label %34

.thread18:                                        ; preds = %17, %10, %.thread23
  %33 = tail call i32 @H5E_dump_api_stack() #7
  br label %34

34:                                               ; preds = %29, %.thread18
  %.081321 = phi i64 [ -1, %.thread18 ], [ %31, %29 ]
  ret i64 %.081321
}